; ModuleID = '28/1745.c'
source_filename = "28/1745.c"
target datalayout = "e-m:e-p270:32:32-p271:32:32-p272:64:64-i64:64-f80:128-n8:16:32:64-S128"
target triple = "x86_64-pc-linux-gnu"

@.str = private unnamed_addr constant [3 x i8] c"%d\00", align 1
@.str.1 = private unnamed_addr constant [4 x i8] c",%d\00", align 1

; Function Attrs: noinline nounwind uwtable
define dso_local i32 @main() #0 {
  %1 = alloca i32, align 4
  %2 = alloca [6000 x i8], align 16
  %3 = alloca [100 x [100 x i8]], align 16
  %4 = alloca i32, align 4
  %5 = alloca i32, align 4
  %6 = alloca i32, align 4
  %7 = alloca i32, align 4
  %8 = alloca i32, align 4
  store i32 0, i32* %1, align 4
  store i32 0, i32* %5, align 4
  store i32 0, i32* %6, align 4
  store i32 0, i32* %7, align 4
  %9 = getelementptr inbounds [6000 x i8], [6000 x i8]* %2, i64 0, i64 0
  %10 = call i32 (i8*, ...) bitcast (i32 (...)* @gets to i32 (i8*, ...)*)(i8* %9)
  %11 = getelementptr inbounds [6000 x i8], [6000 x i8]* %2, i64 0, i64 0
  %12 = call i64 @strlen(i8* %11) #3
  %13 = trunc i64 %12 to i32
  store i32 %13, i32* %4, align 4
  br label %14

14:                                               ; preds = %72, %0
  %15 = load i32, i32* %5, align 4
  %16 = load i32, i32* %4, align 4
  %17 = icmp slt i32 %15, %16
  br i1 %17, label %18, label %73

18:                                               ; preds = %14
  %19 = load i32, i32* %5, align 4
  %20 = sext i32 %19 to i64
  %21 = getelementptr inbounds [6000 x i8], [6000 x i8]* %2, i64 0, i64 %20
  %22 = load i8, i8* %21, align 1
  %23 = sext i8 %22 to i32
  %24 = icmp ne i32 %23, 32
  br i1 %24, label %25, label %69

25:                                               ; preds = %18
  %26 = load i32, i32* %5, align 4
  store i32 %26, i32* %6, align 4
  br label %27

27:                                               ; preds = %53, %25
  %28 = load i32, i32* %6, align 4
  %29 = sext i32 %28 to i64
  %30 = getelementptr inbounds [6000 x i8], [6000 x i8]* %2, i64 0, i64 %29
  %31 = load i8, i8* %30, align 1
  %32 = sext i8 %31 to i32
  %33 = icmp ne i32 %32, 32
  br i1 %33, label %34, label %38

34:                                               ; preds = %27
  %35 = load i32, i32* %6, align 4
  %36 = load i32, i32* %4, align 4
  %37 = icmp slt i32 %35, %36
  br label %38

38:                                               ; preds = %34, %27
  %39 = phi i1 [ false, %27 ], [ %37, %34 ]
  br i1 %39, label %40, label %56

40:                                               ; preds = %38
  %41 = load i32, i32* %6, align 4
  %42 = sext i32 %41 to i64
  %43 = getelementptr inbounds [6000 x i8], [6000 x i8]* %2, i64 0, i64 %42
  %44 = load i8, i8* %43, align 1
  %45 = load i32, i32* %7, align 4
  %46 = sext i32 %45 to i64
  %47 = getelementptr inbounds [100 x [100 x i8]], [100 x [100 x i8]]* %3, i64 0, i64 %46
  %48 = load i32, i32* %6, align 4
  %49 = load i32, i32* %5, align 4
  %50 = sub nsw i32 %48, %49
  %51 = sext i32 %50 to i64
  %52 = getelementptr inbounds [100 x i8], [100 x i8]* %47, i64 0, i64 %51
  store i8 %44, i8* %52, align 1
  br label %53

53:                                               ; preds = %40
  %54 = load i32, i32* %6, align 4
  %55 = add nsw i32 %54, 1
  store i32 %55, i32* %6, align 4
  br label %27

56:                                               ; preds = %38
  %57 = load i32, i32* %7, align 4
  %58 = sext i32 %57 to i64
  %59 = getelementptr inbounds [100 x [100 x i8]], [100 x [100 x i8]]* %3, i64 0, i64 %58
  %60 = load i32, i32* %6, align 4
  %61 = load i32, i32* %5, align 4
  %62 = sub nsw i32 %60, %61
  %63 = sext i32 %62 to i64
  %64 = getelementptr inbounds [100 x i8], [100 x i8]* %59, i64 0, i64 %63
  store i8 0, i8* %64, align 1
  %65 = load i32, i32* %7, align 4
  %66 = add nsw i32 %65, 1
  store i32 %66, i32* %7, align 4
  %67 = load i32, i32* %6, align 4
  %68 = add nsw i32 %67, 1
  store i32 %68, i32* %5, align 4
  br label %72

69:                                               ; preds = %18
  %70 = load i32, i32* %5, align 4
  %71 = add nsw i32 %70, 1
  store i32 %71, i32* %5, align 4
  br label %72

72:                                               ; preds = %69, %56
  br label %14

73:                                               ; preds = %14
  %74 = load i32, i32* %7, align 4
  store i32 %74, i32* %8, align 4
  %75 = getelementptr inbounds [100 x [100 x i8]], [100 x [100 x i8]]* %3, i64 0, i64 0
  %76 = getelementptr inbounds [100 x i8], [100 x i8]* %75, i64 0, i64 0
  %77 = call i64 @strlen(i8* %76) #3
  %78 = trunc i64 %77 to i32
  store i32 %78, i32* %4, align 4
  %79 = call i32 (i8*, ...) @printf(i8* getelementptr inbounds ([3 x i8], [3 x i8]* @.str, i64 0, i64 0), i32 %78)
  store i32 1, i32* %7, align 4
  br label %80

80:                                               ; preds = %92, %73
  %81 = load i32, i32* %7, align 4
  %82 = load i32, i32* %8, align 4
  %83 = icmp slt i32 %81, %82
  br i1 %83, label %84, label %95

84:                                               ; preds = %80
  %85 = load i32, i32* %7, align 4
  %86 = sext i32 %85 to i64
  %87 = getelementptr inbounds [100 x [100 x i8]], [100 x [100 x i8]]* %3, i64 0, i64 %86
  %88 = getelementptr inbounds [100 x i8], [100 x i8]* %87, i64 0, i64 0
  %89 = call i64 @strlen(i8* %88) #3
  %90 = trunc i64 %89 to i32
  store i32 %90, i32* %4, align 4
  %91 = call i32 (i8*, ...) @printf(i8* getelementptr inbounds ([4 x i8], [4 x i8]* @.str.1, i64 0, i64 0), i32 %90)
  br label %92

92:                                               ; preds = %84
  %93 = load i32, i32* %7, align 4
  %94 = add nsw i32 %93, 1
  store i32 %94, i32* %7, align 4
  br label %80

95:                                               ; preds = %80
  ret i32 0
}

declare dso_local i32 @gets(...) #1

; Function Attrs: nounwind readonly
declare dso_local i64 @strlen(i8*) #2

declare dso_local i32 @printf(i8*, ...) #1


!llvm.module.flags = !{!0}
!llvm.ident = !{!1}

!0 = !{i32 1, !"wchar_size", i32 4}
!1 = !{!"clang version 10.0.0-4ubuntu1 "}
