; ModuleID = 'source-C-CXX/27/1745.c'
source_filename = "source-C-CXX/27/1745.c"
target datalayout = "e-m:e-p270:32:32-p271:32:32-p272:64:64-i64:64-f80:128-n8:16:32:64-S128"
target triple = "x86_64-pc-linux-gnu"

@.str = private unnamed_addr constant [3 x i8] c"%d\00", align 1
@.str.1 = private unnamed_addr constant [4 x i8] c",%d\00", align 1

; Function Attrs: nounwind sspstrong uwtable
define dso_local i32 @main() local_unnamed_addr #0 {
  %1 = alloca [6000 x i8], align 16
  %2 = alloca [100 x [100 x i8]], align 16
  %3 = getelementptr inbounds [6000 x i8], [6000 x i8]* %1, i64 0, i64 0
  call void @llvm.lifetime.start.p0i8(i64 6000, i8* nonnull %3) #5
  %4 = getelementptr inbounds [100 x [100 x i8]], [100 x [100 x i8]]* %2, i64 0, i64 0, i64 0
  call void @llvm.lifetime.start.p0i8(i64 10000, i8* nonnull %4) #5
  %5 = call i32 (i8*, ...) bitcast (i32 (...)* @gets to i32 (i8*, ...)*)(i8* nonnull %3) #5
  %6 = call i64 @strlen(i8* noundef nonnull %3) #6
  %7 = trunc i64 %6 to i32
  %8 = icmp sgt i32 %7, 0
  br i1 %8, label %9, label %46

9:                                                ; preds = %0
  %10 = shl i64 %6, 32
  %11 = ashr exact i64 %10, 32
  br label %12

12:                                               ; preds = %9, %41
  %13 = phi i32 [ %43, %41 ], [ 0, %9 ]
  %14 = phi i32 [ %44, %41 ], [ 0, %9 ]
  %15 = sext i32 %14 to i64
  %16 = getelementptr inbounds [6000 x i8], [6000 x i8]* %1, i64 0, i64 %15
  %17 = load i8, i8* %16, align 1, !tbaa !5
  %18 = icmp eq i8 %17, 32
  br i1 %18, label %41, label %19

19:                                               ; preds = %12
  %20 = sext i32 %13 to i64
  %21 = icmp slt i32 %14, %7
  br i1 %21, label %22, label %35

22:                                               ; preds = %19, %22
  %23 = phi i64 [ %27, %22 ], [ %15, %19 ]
  %24 = phi i8 [ %29, %22 ], [ %17, %19 ]
  %25 = sub nsw i64 %23, %15
  %26 = getelementptr inbounds [100 x [100 x i8]], [100 x [100 x i8]]* %2, i64 0, i64 %20, i64 %25
  store i8 %24, i8* %26, align 1, !tbaa !5
  %27 = add nsw i64 %23, 1
  %28 = getelementptr inbounds [6000 x i8], [6000 x i8]* %1, i64 0, i64 %27
  %29 = load i8, i8* %28, align 1, !tbaa !5
  %30 = icmp ne i8 %29, 32
  %31 = icmp slt i64 %27, %11
  %32 = select i1 %30, i1 %31, i1 false
  br i1 %32, label %22, label %33, !llvm.loop !8

33:                                               ; preds = %22
  %34 = trunc i64 %27 to i32
  br label %35

35:                                               ; preds = %33, %19
  %36 = phi i32 [ %14, %19 ], [ %34, %33 ]
  %37 = sub nsw i32 %36, %14
  %38 = sext i32 %37 to i64
  %39 = getelementptr inbounds [100 x [100 x i8]], [100 x [100 x i8]]* %2, i64 0, i64 %20, i64 %38
  store i8 0, i8* %39, align 1, !tbaa !5
  %40 = add nsw i32 %13, 1
  br label %41

41:                                               ; preds = %12, %35
  %42 = phi i32 [ %36, %35 ], [ %14, %12 ]
  %43 = phi i32 [ %40, %35 ], [ %13, %12 ]
  %44 = add nsw i32 %42, 1
  %45 = icmp slt i32 %44, %7
  br i1 %45, label %12, label %46, !llvm.loop !10

46:                                               ; preds = %41, %0
  %47 = phi i32 [ 0, %0 ], [ %43, %41 ]
  %48 = call i64 @strlen(i8* noundef nonnull %4) #6
  %49 = trunc i64 %48 to i32
  %50 = call i32 (i8*, ...) @printf(i8* nonnull dereferenceable(1) getelementptr inbounds ([3 x i8], [3 x i8]* @.str, i64 0, i64 0), i32 %49)
  %51 = icmp sgt i32 %47, 1
  br i1 %51, label %52, label %62

52:                                               ; preds = %46
  %53 = zext i32 %47 to i64
  br label %54

54:                                               ; preds = %52, %54
  %55 = phi i64 [ 1, %52 ], [ %60, %54 ]
  %56 = getelementptr inbounds [100 x [100 x i8]], [100 x [100 x i8]]* %2, i64 0, i64 %55, i64 0
  %57 = call i64 @strlen(i8* noundef nonnull %56) #6
  %58 = trunc i64 %57 to i32
  %59 = call i32 (i8*, ...) @printf(i8* nonnull dereferenceable(1) getelementptr inbounds ([4 x i8], [4 x i8]* @.str.1, i64 0, i64 0), i32 %58)
  %60 = add nuw nsw i64 %55, 1
  %61 = icmp eq i64 %60, %53
  br i1 %61, label %62, label %54, !llvm.loop !11

62:                                               ; preds = %54, %46
  call void @llvm.lifetime.end.p0i8(i64 10000, i8* nonnull %4) #5
  call void @llvm.lifetime.end.p0i8(i64 6000, i8* nonnull %3) #5
  ret i32 0
}

; Function Attrs: argmemonly mustprogress nofree nosync nounwind willreturn
declare void @llvm.lifetime.start.p0i8(i64 immarg, i8* nocapture) #1

declare i32 @gets(...) local_unnamed_addr #2

; Function Attrs: argmemonly mustprogress nofree nounwind readonly willreturn
declare i64 @strlen(i8* nocapture) local_unnamed_addr #3

; Function Attrs: nofree nounwind
declare noundef i32 @printf(i8* nocapture noundef readonly, ...) local_unnamed_addr #4

; Function Attrs: argmemonly mustprogress nofree nosync nounwind willreturn
declare void @llvm.lifetime.end.p0i8(i64 immarg, i8* nocapture) #1


!llvm.module.flags = !{!0, !1, !2, !3}
!llvm.ident = !{!4}

!0 = !{i32 1, !"wchar_size", i32 4}
!1 = !{i32 7, !"PIC Level", i32 2}
!2 = !{i32 7, !"PIE Level", i32 2}
!3 = !{i32 7, !"uwtable", i32 1}
!4 = !{!"clang version 13.0.0"}
!5 = !{!6, !6, i64 0}
!6 = !{!"omnipotent char", !7, i64 0}
!7 = !{!"Simple C/C++ TBAA"}
!8 = distinct !{!8, !9}
!9 = !{!"llvm.loop.mustprogress"}
!10 = distinct !{!10, !9}
!11 = distinct !{!11, !9}
